Certificate:
    Data:
        Version: 1 (0x0)
        Serial Number: 1 (0x1)
        Signature Algorithm: md5WithRSAEncryption
        Issuer: O=Ministerio de la Presidencia, OU=Departamente de informatica, L=Madrid, ST=Madrid, C=ES, CN=des-fwkv3.inter060.es
        Validity
            Not Before: Nov 29 09:50:42 2010 GMT
            Not After : Nov 26 09:50:42 2020 GMT
        Subject: C=ES, ST=Madrid, O=Ministerio de la Presidencia, CN=des-fwkv3.inter060.es
        Subject Public Key Info:
            Public Key Algorithm: rsaEncryption
            RSA Public Key: (1024 bit)
                Modulus (1024 bit):
                    00:b2:98:86:f9:0c:7a:b4:f0:23:1f:61:74:52:6d:
                    b7:93:12:d9:a0:cf:8d:25:dd:4b:91:8e:ac:00:0e:
                    0a:ec:8c:97:7a:10:aa:6d:34:fa:3d:c7:81:f8:a2:
                    4f:28:57:7e:b0:15:40:c2:ca:e7:c0:6c:26:66:f2:
                    9d:ee:d2:e5:d0:a9:2c:d4:79:2d:c9:0c:c1:13:05:
                    11:56:66:80:71:22:47:7a:a2:90:81:c0:56:20:0d:
                    40:ed:34:eb:52:b3:8a:0a:00:e6:9a:82:58:bb:77:
                    aa:90:00:82:90:73:bd:87:15:ef:4a:5f:62:e3:33:
                    02:64:d1:bf:6a:ff:bc:28:6f
                Exponent: 65537 (0x10001)
    Signature Algorithm: md5WithRSAEncryption
        62:d2:e9:53:f6:26:90:f0:79:76:f5:0b:00:6d:e0:3a:de:42:
        92:1d:21:62:a5:ae:18:29:c2:c7:43:55:75:17:09:52:d9:02:
        1d:7f:43:4b:b0:c3:2b:ad:3c:95:3a:e2:9b:41:d6:d4:b5:42:
        fe:ca:8a:88:a1:ff:b7:a0:4c:9c:25:4a:2b:53:5d:93:b9:bd:
        66:48:85:3c:8e:d3:7c:bc:70:6e:22:0e:ce:86:79:72:1f:5d:
        8e:e5:2f:1d:38:42:0f:a4:ea:d1:56:0a:d0:0b:1d:86:40:bf:
        1e:08:1d:7c:e6:96:2a:52:09:a8:fc:e1:d0:53:91:06:75:dd:
        6b:e3
-----BEGIN CERTIFICATE-----
MIICcTCCAdoCAQEwDQYJKoZIhvcNAQEEBQAwgZwxJTAjBgNVBAoTHE1pbmlzdGVy
aW8gZGUgbGEgUHJlc2lkZW5jaWExJDAiBgNVBAsTG0RlcGFydGFtZW50ZSBkZSBp
bmZvcm1hdGljYTEPMA0GA1UEBxMGTWFkcmlkMQ8wDQYDVQQIEwZNYWRyaWQxCzAJ
BgNVBAYTAkVTMR4wHAYDVQQDExVkZXMtZndrdjMuaW50ZXIwNjAuZXMwHhcNMTAx
MTI5MDk1MDQyWhcNMjAxMTI2MDk1MDQyWjBlMQswCQYDVQQGEwJFUzEPMA0GA1UE
CBMGTWFkcmlkMSUwIwYDVQQKExxNaW5pc3RlcmlvIGRlIGxhIFByZXNpZGVuY2lh
MR4wHAYDVQQDExVkZXMtZndrdjMuaW50ZXIwNjAuZXMwgZ8wDQYJKoZIhvcNAQEB
BQADgY0AMIGJAoGBALKYhvkMerTwIx9hdFJtt5MS2aDPjSXdS5GOrAAOCuyMl3oQ
qm00+j3HgfiiTyhXfrAVQMLK58BsJmbyne7S5dCpLNR5LckMwRMFEVZmgHEiR3qi
kIHAViANQO0061KzigoA5pqCWLt3qpAAgpBzvYcV70pfYuMzAmTRv2r/vChvAgMB
AAEwDQYJKoZIhvcNAQEEBQADgYEAYtLpU/YmkPB5dvULAG3gOt5Ckh0hYqWuGCnC
x0NVdRcJUtkCHX9DS7DDK608lTrim0HW1LVC/sqKiKH/t6BMnCVKK1Ndk7m9ZkiF
PI7TfLxwbiIOzoZ5ch9djuUvHThCD6Tq0VYK0AsdhkC/HggdfOaWKlIJqPzh0FOR
BnXda+M=
-----END CERTIFICATE-----
